target datalayout = "e-m:e-p270:32:32-p271:32:32-p272:64:64-i64:64-i128:128-f80:128-n8:16:32:64-S128"
target triple = "x86_64-unknown-linux-gnu"

%struct.UStringSearch = type { ptr, %struct.UPattern, ptr, ptr, ptr, ptr, ptr, i8, i32, i32, i32, i8 }
%struct.UPattern = type { ptr, i32, i32, ptr, [256 x i32], i32, ptr, [256 x i64], i8, i8 }
%struct.USearch = type { ptr, i32, i8, i8, i16, ptr, ptr, i32, i32, i8, i8 }

; Function Attrs: mustprogress nounwind uwtable
define ptr @usearch_getText_75(ptr noundef %strsrch, ptr noundef %length) #1 {
entry:
  %retval = alloca ptr, align 8
  %strsrch.addr = alloca ptr, align 8
  %length.addr = alloca ptr, align 8
  store ptr %strsrch, ptr %strsrch.addr, align 8
  store ptr %length, ptr %length.addr, align 8
  %0 = load ptr, ptr %strsrch.addr, align 8
  %tobool = icmp ne ptr %0, null
  br i1 %tobool, label %if.then, label %if.end

if.then:                                          ; preds = %entry
  %1 = load ptr, ptr %strsrch.addr, align 8
  %search = getelementptr inbounds %struct.UStringSearch, ptr %1, i32 0, i32 0
  %2 = load ptr, ptr %search, align 8
  %textLength = getelementptr inbounds %struct.USearch, ptr %2, i32 0, i32 1
  %3 = load i32, ptr %textLength, align 8
  %4 = load ptr, ptr %length.addr, align 8
  store i32 %3, ptr %4, align 4
  %5 = load ptr, ptr %strsrch.addr, align 8
  %search1 = getelementptr inbounds %struct.UStringSearch, ptr %5, i32 0, i32 0
  %6 = load ptr, ptr %search1, align 8
  %text = getelementptr inbounds %struct.USearch, ptr %6, i32 0, i32 0
  %7 = load ptr, ptr %text, align 8
  store ptr %7, ptr %retval, align 8
  br label %return

if.end:                                           ; preds = %entry
  store ptr null, ptr %retval, align 8
  br label %return

return:                                           ; preds = %if.end, %if.then
  %8 = load ptr, ptr %retval, align 8
  ret ptr %8
}