; Function Attrs: mustprogress nofree norecurse nosync nounwind willreturn memory(read, argmem: readwrite, inaccessiblemem: none) uwtable
define ptr @usearch_getText_75(ptr noundef readonly %strsrch, ptr nocapture noundef writeonly %length) local_unnamed_addr #7 {
entry:
  %tobool.not = icmp eq ptr %strsrch, null
  br i1 %tobool.not, label %return, label %if.then

if.then:                                          ; preds = %entry
  %0 = load ptr, ptr %strsrch, align 8
  %textLength = getelementptr inbounds i8, ptr %0, i64 8
  %1 = load i32, ptr %textLength, align 8
  store i32 %1, ptr %length, align 4
  %2 = load ptr, ptr %strsrch, align 8
  %3 = load ptr, ptr %2, align 8
  br label %return

return:                                           ; preds = %entry, %if.then
  %retval.0 = phi ptr [ %3, %if.then ], [ null, %entry ]
  ret ptr %retval.0
}